; Function Attrs: mustprogress nounwind uwtable
define void @glslang_program_set_source_file(ptr nocapture noundef readonly %0, i32 noundef %1, ptr noundef %2) local_unnamed_addr #0 {
_ZL14c_shader_stage15glslang_stage_t.exit:
  %.not.i = icmp eq ptr %2, null
  br i1 %.not.i, label %_ZN7glslang13TIntermediate13setSourceFileEPKc.exit, label %3

3:                                                ; preds = %_ZL14c_shader_stage15glslang_stage_t.exit
  %narrow = tail call i32 @llvm.umin.i32(i32 %1, i32 14)
  %.0.i = zext nneg i32 %narrow to i64
  %4 = load ptr, ptr %0, align 8
  %5 = getelementptr inbounds i8, ptr %4, i64 352
  %6 = getelementptr inbounds [14 x ptr], ptr %5, i64 0, i64 %.0.i
  %7 = load ptr, ptr %6, align 8
  %8 = getelementptr inbounds i8, ptr %7, i64 1888
  %9 = tail call noundef nonnull align 8 dereferenceable(32) ptr @_ZNSt7__cxx1112basic_stringIcSt11char_traitsIcESaIcEEaSEPKc(ptr noundef nonnull align 8 dereferenceable(32) %8, ptr noundef nonnull %2) #15
  br label %_ZN7glslang13TIntermediate13setSourceFileEPKc.exit

_ZN7glslang13TIntermediate13setSourceFileEPKc.exit: ; preds = %_ZL14c_shader_stage15glslang_stage_t.exit, %3
  ret void
}